; Function Attrs: mustprogress nounwind willreturn uwtable
define void @SUNDlsMat_DestroyMat(ptr noundef captures(none) %0) local_unnamed_addr #3 {
  %2 = getelementptr inbounds nuw i8, ptr %0, i64 56
  %3 = load ptr, ptr %2, align 8, !tbaa !3
  tail call void @free(ptr noundef %3) #13
  store ptr null, ptr %2, align 8, !tbaa !3
  %4 = getelementptr inbounds nuw i8, ptr %0, i64 72
  %5 = load ptr, ptr %4, align 8, !tbaa !12
  tail call void @free(ptr noundef %5) #13
  tail call void @free(ptr noundef %0) #13
  ret void
}